; Function Attrs: mustprogress nofree norecurse nosync nounwind willreturn memory(read, inaccessiblemem: none) uwtable
define dso_local noundef zeroext i1 @_ZN4Luau10isFunctionERKNS_7AstStatE(ptr nocapture noundef nonnull readonly align 8 dereferenceable(29) %0) local_unnamed_addr #5 {
  %2 = getelementptr inbounds i8, ptr %0, i64 8
  %3 = load i32, ptr %2, align 8
  %4 = load i32, ptr @_ZN4Luau7AstRttiINS_15AstStatFunctionEE5valueE, align 4
  %5 = icmp eq i32 %3, %4
  %6 = load i32, ptr @_ZN4Luau7AstRttiINS_20AstStatLocalFunctionEE5valueE, align 4
  %7 = icmp eq i32 %3, %6
  %8 = select i1 %5, i1 true, i1 %7
  ret i1 %8
}